; Function Attrs: nounwind uwtable
define internal ptr @lu_longlong(ptr readnone captures(none) %0, ptr noundef readonly captures(none) %1, ptr readnone captures(none) %2) #0 {
  br label %4

4:                                                ; preds = %4, %3
  %.08 = phi i64 [ 8, %3 ], [ %6, %4 ]
  %.0 = phi i64 [ 0, %3 ], [ %10, %4 ]
  %5 = shl i64 %.0, 8
  %6 = add nsw i64 %.08, -1
  %7 = getelementptr i8, ptr %1, i64 %6
  %8 = load i8, ptr %7, align 1, !tbaa !18
  %9 = zext i8 %8 to i64
  %10 = or disjoint i64 %5, %9
  %11 = icmp samesign ugt i64 %.08, 1
  br i1 %11, label %4, label %12, !llvm.loop !96

12:                                               ; preds = %4
  %13 = tail call ptr @PyLong_FromLongLong(i64 noundef %10) #7
  ret ptr %13
}